target datalayout = "e-m:e-p270:32:32-p271:32:32-p272:64:64-i64:64-i128:128-f80:128-n8:16:32:64-S128"
target triple = "x86_64-pc-linux-gnu"

@stderr = external global ptr, align 8
@.str.4 = private unnamed_addr constant [58 x i8] c"integer overflow when trying to allocate %zu * %zu bytes\0A\00", align 1
@.str.5 = private unnamed_addr constant [49 x i8] c"out of memory when trying to allocate %zu bytes\0A\00", align 1

; Function Attrs: inlinehint nounwind uwtable
define internal ptr @gv_calloc(i64 noundef %0, i64 noundef %1) #3 {
  %3 = alloca i64, align 8
  %4 = alloca i64, align 8
  %5 = alloca ptr, align 8
  store i64 %0, ptr %3, align 8, !tbaa !36
  store i64 %1, ptr %4, align 8, !tbaa !36
  %6 = load i64, ptr %3, align 8, !tbaa !36
  %7 = icmp ugt i64 %6, 0
  br i1 %7, label %8, label %18

8:                                                ; preds = %2
  %9 = load i64, ptr %3, align 8, !tbaa !36
  %10 = udiv i64 -1, %9
  %11 = load i64, ptr %4, align 8, !tbaa !36
  %12 = icmp ult i64 %10, %11
  br i1 %12, label %13, label %18

13:                                               ; preds = %8
  %14 = load ptr, ptr @stderr, align 8, !tbaa !4
  %15 = load i64, ptr %3, align 8, !tbaa !36
  %16 = load i64, ptr %4, align 8, !tbaa !36
  %17 = call i32 (ptr, ptr, ...) @fprintf(ptr noundef %14, ptr noundef @.str.4, i64 noundef %15, i64 noundef %16) #10
  call void @graphviz_exit(i32 noundef 1) #11
  unreachable

18:                                               ; preds = %8, %2
  call void @llvm.lifetime.start.p0(i64 8, ptr %5) #10
  %19 = load i64, ptr %3, align 8, !tbaa !36
  %20 = load i64, ptr %4, align 8, !tbaa !36
  %21 = call noalias ptr @calloc(i64 noundef %19, i64 noundef %20) #12
  store ptr %21, ptr %5, align 8, !tbaa !13
  %22 = load i64, ptr %3, align 8, !tbaa !36
  %23 = icmp ugt i64 %22, 0
  br i1 %23, label %24, label %36

24:                                               ; preds = %18
  %25 = load i64, ptr %4, align 8, !tbaa !36
  %26 = icmp ugt i64 %25, 0
  br i1 %26, label %27, label %36

27:                                               ; preds = %24
  %28 = load ptr, ptr %5, align 8, !tbaa !13
  %29 = icmp eq ptr %28, null
  br i1 %29, label %30, label %36

30:                                               ; preds = %27
  %31 = load ptr, ptr @stderr, align 8, !tbaa !4
  %32 = load i64, ptr %3, align 8, !tbaa !36
  %33 = load i64, ptr %4, align 8, !tbaa !36
  %34 = mul i64 %32, %33
  %35 = call i32 (ptr, ptr, ...) @fprintf(ptr noundef %31, ptr noundef @.str.5, i64 noundef %34) #10
  call void @graphviz_exit(i32 noundef 1) #11
  unreachable

36:                                               ; preds = %27, %24, %18
  %37 = load ptr, ptr %5, align 8, !tbaa !13
  call void @llvm.lifetime.end.p0(i64 8, ptr %5) #10
  ret ptr %37
}