; Function Attrs: inlinehint nofree nounwind uwtable
define internal fastcc noalias noundef ptr @gv_calloc(i64 noundef range(i64 -2147483648, 2147483648) %0, i64 noundef range(i64 4, 9) %1) unnamed_addr #4 {
  %.not = icmp eq i64 %0, 0
  br i1 %.not, label %.thread, label %4

.thread:                                          ; preds = %2
  %3 = tail call noalias ptr @calloc(i64 noundef 0, i64 noundef %1) #16
  br label %15

4:                                                ; preds = %2
  %mul = tail call { i64, i1 } @llvm.umul.with.overflow.i64(i64 %0, i64 %1)
  %mul.ov = extractvalue { i64, i1 } %mul, 1
  br i1 %mul.ov, label %5, label %8

5:                                                ; preds = %4
  %6 = load ptr, ptr @stderr, align 8, !tbaa !8
  %7 = tail call i32 (ptr, ptr, ...) @fprintf(ptr noundef %6, ptr noundef nonnull @.str.4, i64 noundef %0, i64 noundef %1) #14
  tail call fastcc void @graphviz_exit() #15
  unreachable

8:                                                ; preds = %4
  %9 = tail call noalias ptr @calloc(i64 noundef %0, i64 noundef %1) #16
  %10 = icmp eq ptr %9, null
  br i1 %10, label %11, label %15

11:                                               ; preds = %8
  %12 = load ptr, ptr @stderr, align 8, !tbaa !8
  %13 = mul nsw i64 %1, %0
  %14 = tail call i32 (ptr, ptr, ...) @fprintf(ptr noundef %12, ptr noundef nonnull @.str.5, i64 noundef %13) #14
  tail call fastcc void @graphviz_exit() #15
  unreachable

15:                                               ; preds = %.thread, %8
  %16 = phi ptr [ %3, %.thread ], [ %9, %8 ]
  ret ptr %16
}